; Function Attrs: nounwind uwtable
define i32 @Abc_NodeIsBuf(ptr noundef readonly captures(none) %0) local_unnamed_addr #0 {
  %2 = getelementptr i8, ptr %0, i64 28
  %.val18 = load i32, ptr %2, align 4, !tbaa !59
  %.not = icmp eq i32 %.val18, 1
  br i1 %.not, label %3, label %31

3:                                                ; preds = %1
  %4 = load ptr, ptr %0, align 8, !tbaa !24
  %5 = getelementptr i8, ptr %4, i64 4
  %.val16 = load i32, ptr %5, align 4, !tbaa !51
  switch i32 %.val16, label %31 [
    i32 1, label %6
    i32 2, label %10
    i32 3, label %17
    i32 4, label %24
  ]

6:                                                ; preds = %3
  %7 = getelementptr inbounds nuw i8, ptr %0, i64 56
  %8 = load ptr, ptr %7, align 8, !tbaa !43
  %9 = tail call i32 @Abc_SopIsBuf(ptr noundef %8) #10
  br label %31

10:                                               ; preds = %3
  %11 = getelementptr inbounds nuw i8, ptr %0, i64 56
  %12 = load ptr, ptr %11, align 8, !tbaa !43
  %13 = ptrtoint ptr %12 to i64
  %14 = trunc i64 %13 to i32
  %15 = and i32 %14, 1
  %16 = xor i32 %15, 1
  br label %31

17:                                               ; preds = %3
  %18 = getelementptr inbounds nuw i8, ptr %0, i64 56
  %19 = load ptr, ptr %18, align 8, !tbaa !43
  %20 = ptrtoint ptr %19 to i64
  %21 = trunc i64 %20 to i32
  %22 = and i32 %21, 1
  %23 = xor i32 %22, 1
  br label %31

24:                                               ; preds = %3
  %25 = getelementptr inbounds nuw i8, ptr %0, i64 56
  %26 = load ptr, ptr %25, align 8, !tbaa !43
  %27 = tail call ptr (...) @Abc_FrameReadLibGen() #10
  %28 = tail call ptr @Mio_LibraryReadBuf(ptr noundef %27) #10
  %29 = icmp eq ptr %26, %28
  %30 = zext i1 %29 to i32
  br label %31

31:                                               ; preds = %3, %1, %24, %17, %10, %6
  %.0 = phi i32 [ %9, %6 ], [ %16, %10 ], [ %23, %17 ], [ %30, %24 ], [ 0, %1 ], [ 0, %3 ]
  ret i32 %.0
}